target datalayout = "e-m:e-p270:32:32-p271:32:32-p272:64:64-i64:64-i128:128-f80:128-n8:16:32:64-S128"
target triple = "x86_64-pc-linux-gnu"

%struct.zmq_msg_t = type { [64 x i8] }

@stderr = external global ptr, align 8
@.str = private unnamed_addr constant [12 x i8] c"%s (%s:%d)\0A\00", align 1
@.str.1 = private unnamed_addr constant [103 x i8] c"generated/home/dtcxzyw/WorkSpace/Projects/compilers/llvm-opt-benchmark/bench/libzmq/libzmq/src/zmq.cpp\00", align 1

; Function Attrs: mustprogress uwtable
define i64 @zmq_msg_size(ptr noundef %0) #1 {
  %2 = alloca ptr, align 8
  store ptr %0, ptr %2, align 8, !tbaa !23
  %3 = load ptr, ptr %2, align 8, !tbaa !23
  %4 = call noundef i64 @_ZNK3zmq5msg_t4sizeEv(ptr noundef nonnull align 8 dereferenceable(64) %3)
  ret i64 %4
}

; Function Attrs: mustprogress uwtable
define i32 @zmq_msg_close(ptr noundef %0) #1 {
  %2 = alloca ptr, align 8
  store ptr %0, ptr %2, align 8, !tbaa !23
  %3 = load ptr, ptr %2, align 8, !tbaa !23
  %4 = call noundef i32 @_ZN3zmq5msg_t5closeEv(ptr noundef nonnull align 8 dereferenceable(64) %3)
  ret i32 %4
}

; Function Attrs: inlinehint mustprogress uwtable
define internal noundef i32 @_ZL9s_sendmsgPN3zmq13socket_base_tEP9zmq_msg_ti(ptr noundef %0, ptr noundef %1, i32 noundef %2) #9 {
  %4 = alloca i32, align 4
  %5 = alloca ptr, align 8
  %6 = alloca ptr, align 8
  %7 = alloca i32, align 4
  %8 = alloca i64, align 8
  %9 = alloca i32, align 4
  %10 = alloca i32, align 4
  %11 = alloca i64, align 8
  store ptr %0, ptr %5, align 8, !tbaa !17
  store ptr %1, ptr %6, align 8, !tbaa !23
  store i32 %2, ptr %7, align 4, !tbaa !8
  call void @llvm.lifetime.start.p0(i64 8, ptr %8) #20
  %12 = load ptr, ptr %6, align 8, !tbaa !23
  %13 = call i64 @zmq_msg_size(ptr noundef %12)
  store i64 %13, ptr %8, align 8, !tbaa !13
  call void @llvm.lifetime.start.p0(i64 4, ptr %9) #20
  %14 = load ptr, ptr %5, align 8, !tbaa !17
  %15 = load ptr, ptr %6, align 8, !tbaa !23
  %16 = load i32, ptr %7, align 4, !tbaa !8
  %17 = call noundef i32 @_ZN3zmq13socket_base_t4sendEPNS_5msg_tEi(ptr noundef nonnull align 8 dereferenceable(1825) %14, ptr noundef %15, i32 noundef %16)
  store i32 %17, ptr %9, align 4, !tbaa !8
  %18 = load i32, ptr %9, align 4, !tbaa !8
  %19 = icmp slt i32 %18, 0
  %20 = zext i1 %19 to i64
  %21 = call i64 @llvm.expect.i64(i64 %20, i64 0)
  %22 = icmp ne i64 %21, 0
  br i1 %22, label %23, label %24

23:                                               ; preds = %3
  store i32 -1, ptr %4, align 4
  store i32 1, ptr %10, align 4
  br label %35

24:                                               ; preds = %3
  call void @llvm.lifetime.start.p0(i64 8, ptr %11) #20
  store i64 2147483647, ptr %11, align 8, !tbaa !13
  %25 = load i64, ptr %8, align 8, !tbaa !13
  %26 = load i64, ptr %11, align 8, !tbaa !13
  %27 = icmp ult i64 %25, %26
  br i1 %27, label %28, label %30

28:                                               ; preds = %24
  %29 = load i64, ptr %8, align 8, !tbaa !13
  br label %32

30:                                               ; preds = %24
  %31 = load i64, ptr %11, align 8, !tbaa !13
  br label %32

32:                                               ; preds = %30, %28
  %33 = phi i64 [ %29, %28 ], [ %31, %30 ]
  %34 = trunc i64 %33 to i32
  store i32 %34, ptr %4, align 4
  store i32 1, ptr %10, align 4
  call void @llvm.lifetime.end.p0(i64 8, ptr %11) #20
  br label %35

35:                                               ; preds = %32, %23
  call void @llvm.lifetime.end.p0(i64 4, ptr %9) #20
  call void @llvm.lifetime.end.p0(i64 8, ptr %8) #20
  %36 = load i32, ptr %4, align 4
  ret i32 %36
}

; Function Attrs: mustprogress uwtable
define i32 @zmq_msg_init_data(ptr noundef %0, ptr noundef %1, i64 noundef %2, ptr noundef %3, ptr noundef %4) #1 {
  %6 = alloca ptr, align 8
  %7 = alloca ptr, align 8
  %8 = alloca i64, align 8
  %9 = alloca ptr, align 8
  %10 = alloca ptr, align 8
  store ptr %0, ptr %6, align 8, !tbaa !23
  store ptr %1, ptr %7, align 8, !tbaa !12
  store i64 %2, ptr %8, align 8, !tbaa !13
  store ptr %3, ptr %9, align 8, !tbaa !12
  store ptr %4, ptr %10, align 8, !tbaa !12
  %11 = load ptr, ptr %6, align 8, !tbaa !23
  %12 = load ptr, ptr %7, align 8, !tbaa !12
  %13 = load i64, ptr %8, align 8, !tbaa !13
  %14 = load ptr, ptr %9, align 8, !tbaa !12
  %15 = load ptr, ptr %10, align 8, !tbaa !12
  %16 = call noundef i32 @_ZN3zmq5msg_t9init_dataEPvmPFvS1_S1_ES1_(ptr noundef nonnull align 8 dereferenceable(64) %11, ptr noundef %12, i64 noundef %13, ptr noundef %14, ptr noundef %15)
  ret i32 %16
}

; Function Attrs: mustprogress uwtable
define internal noundef ptr @_ZL16as_socket_base_tPv(ptr noundef %0) #1 {
  %2 = alloca ptr, align 8
  %3 = alloca ptr, align 8
  %4 = alloca ptr, align 8
  %5 = alloca i32, align 4
  store ptr %0, ptr %3, align 8, !tbaa !12
  call void @llvm.lifetime.start.p0(i64 8, ptr %4) #20
  %6 = load ptr, ptr %3, align 8, !tbaa !12
  store ptr %6, ptr %4, align 8, !tbaa !17
  %7 = load ptr, ptr %3, align 8, !tbaa !12
  %8 = icmp ne ptr %7, null
  br i1 %8, label %9, label %12

9:                                                ; preds = %1
  %10 = load ptr, ptr %4, align 8, !tbaa !17
  %11 = call noundef zeroext i1 @_ZNK3zmq13socket_base_t9check_tagEv(ptr noundef nonnull align 8 dereferenceable(1825) %10)
  br i1 %11, label %14, label %12

12:                                               ; preds = %9, %1
  %13 = call ptr @__errno_location() #19
  store i32 88, ptr %13, align 4, !tbaa !8
  store ptr null, ptr %2, align 8
  store i32 1, ptr %5, align 4
  br label %16

14:                                               ; preds = %9
  %15 = load ptr, ptr %4, align 8, !tbaa !17
  store ptr %15, ptr %2, align 8
  store i32 1, ptr %5, align 4
  br label %16

16:                                               ; preds = %14, %12
  call void @llvm.lifetime.end.p0(i64 8, ptr %4) #20
  %17 = load ptr, ptr %2, align 8
  ret ptr %17
}

; Function Attrs: mustprogress uwtable
define i32 @zmq_send_const(ptr noundef %0, ptr noundef %1, i64 noundef %2, i32 noundef %3) #1 {
  %5 = alloca i32, align 4
  %6 = alloca ptr, align 8
  %7 = alloca ptr, align 8
  %8 = alloca i64, align 8
  %9 = alloca i32, align 4
  %10 = alloca ptr, align 8
  %11 = alloca i32, align 4
  %12 = alloca %struct.zmq_msg_t, align 8
  %13 = alloca i32, align 4
  %14 = alloca i32, align 4
  %15 = alloca i32, align 4
  %16 = alloca ptr, align 8
  store ptr %0, ptr %6, align 8, !tbaa !12
  store ptr %1, ptr %7, align 8, !tbaa !12
  store i64 %2, ptr %8, align 8, !tbaa !13
  store i32 %3, ptr %9, align 4, !tbaa !8
  call void @llvm.lifetime.start.p0(i64 8, ptr %10) #20
  %17 = load ptr, ptr %6, align 8, !tbaa !12
  %18 = call noundef ptr @_ZL16as_socket_base_tPv(ptr noundef %17)
  store ptr %18, ptr %10, align 8, !tbaa !17
  %19 = load ptr, ptr %10, align 8, !tbaa !17
  %20 = icmp ne ptr %19, null
  br i1 %20, label %22, label %21

21:                                               ; preds = %4
  store i32 -1, ptr %5, align 4
  store i32 1, ptr %11, align 4
  br label %67

22:                                               ; preds = %4
  call void @llvm.lifetime.start.p0(i64 64, ptr %12) #20
  call void @llvm.lifetime.start.p0(i64 4, ptr %13) #20
  %23 = load ptr, ptr %7, align 8, !tbaa !12
  %24 = load i64, ptr %8, align 8, !tbaa !13
  %25 = call i32 @zmq_msg_init_data(ptr noundef %12, ptr noundef %23, i64 noundef %24, ptr noundef null, ptr noundef null)
  store i32 %25, ptr %13, align 4, !tbaa !8
  %26 = load i32, ptr %13, align 4, !tbaa !8
  %27 = icmp ne i32 %26, 0
  br i1 %27, label %28, label %29

28:                                               ; preds = %22
  store i32 -1, ptr %5, align 4
  store i32 1, ptr %11, align 4
  br label %66

29:                                               ; preds = %22
  %30 = load ptr, ptr %10, align 8, !tbaa !17
  %31 = load i32, ptr %9, align 4, !tbaa !8
  %32 = call noundef i32 @_ZL9s_sendmsgPN3zmq13socket_base_tEP9zmq_msg_ti(ptr noundef %30, ptr noundef %12, i32 noundef %31)
  store i32 %32, ptr %13, align 4, !tbaa !8
  %33 = load i32, ptr %13, align 4, !tbaa !8
  %34 = icmp slt i32 %33, 0
  %35 = zext i1 %34 to i64
  %36 = call i64 @llvm.expect.i64(i64 %35, i64 0)
  %37 = icmp ne i64 %36, 0
  br i1 %37, label %38, label %64

38:                                               ; preds = %29
  call void @llvm.lifetime.start.p0(i64 4, ptr %14) #20
  %39 = call ptr @__errno_location() #19
  %40 = load i32, ptr %39, align 4, !tbaa !8
  store i32 %40, ptr %14, align 4, !tbaa !8
  call void @llvm.lifetime.start.p0(i64 4, ptr %15) #20
  %41 = call i32 @zmq_msg_close(ptr noundef %12)
  store i32 %41, ptr %15, align 4, !tbaa !8
  br label %42

42:                                               ; preds = %38
  %43 = load i32, ptr %15, align 4, !tbaa !8
  %44 = icmp eq i32 %43, 0
  %45 = xor i1 %44, true
  %46 = zext i1 %45 to i64
  %47 = call i64 @llvm.expect.i64(i64 %46, i64 0)
  %48 = icmp ne i64 %47, 0
  br i1 %48, label %49, label %59

49:                                               ; preds = %42
  call void @llvm.lifetime.start.p0(i64 8, ptr %16) #20
  %50 = call ptr @__errno_location() #19
  %51 = load i32, ptr %50, align 4, !tbaa !8
  %52 = call ptr @strerror(i32 noundef %51) #20
  store ptr %52, ptr %16, align 8, !tbaa !19
  %53 = load ptr, ptr @stderr, align 8, !tbaa !25
  %54 = load ptr, ptr %16, align 8, !tbaa !19
  %55 = call i32 (ptr, ptr, ...) @fprintf(ptr noundef %53, ptr noundef @.str, ptr noundef %54, ptr noundef @.str.1, i32 noundef 415) #20
  %56 = load ptr, ptr @stderr, align 8, !tbaa !25
  %57 = call i32 @fflush(ptr noundef %56)
  %58 = load ptr, ptr %16, align 8, !tbaa !19
  call void @_ZN3zmq9zmq_abortEPKc(ptr noundef %58)
  call void @llvm.lifetime.end.p0(i64 8, ptr %16) #20
  br label %59

59:                                               ; preds = %49, %42
  br label %60

60:                                               ; preds = %59
  br label %61

61:                                               ; preds = %60
  %62 = load i32, ptr %14, align 4, !tbaa !8
  %63 = call ptr @__errno_location() #19
  store i32 %62, ptr %63, align 4, !tbaa !8
  store i32 -1, ptr %5, align 4
  store i32 1, ptr %11, align 4
  call void @llvm.lifetime.end.p0(i64 4, ptr %15) #20
  call void @llvm.lifetime.end.p0(i64 4, ptr %14) #20
  br label %66

64:                                               ; preds = %29
  %65 = load i32, ptr %13, align 4, !tbaa !8
  store i32 %65, ptr %5, align 4
  store i32 1, ptr %11, align 4
  br label %66

66:                                               ; preds = %64, %61, %28
  call void @llvm.lifetime.end.p0(i64 4, ptr %13) #20
  call void @llvm.lifetime.end.p0(i64 64, ptr %12) #20
  br label %67

67:                                               ; preds = %66, %21
  call void @llvm.lifetime.end.p0(i64 8, ptr %10) #20
  %68 = load i32, ptr %5, align 4
  ret i32 %68
}