; Function Attrs: mustprogress uwtable
define range(i32 -1, -2147483648) i32 @zmq_send_const(ptr noundef %0, ptr noundef %1, i64 noundef %2, i32 noundef %3) local_unnamed_addr #1 {
  %5 = alloca %struct.zmq_msg_t, align 8
  %.not.i = icmp eq ptr %0, null
  br i1 %.not.i, label %_ZL16as_socket_base_tPv.exit.thread, label %6

6:                                                ; preds = %4
  %7 = tail call noundef zeroext i1 @_ZNK3zmq13socket_base_t9check_tagEv(ptr noundef nonnull align 8 dereferenceable(1825) %0)
  br i1 %7, label %_ZL16as_socket_base_tPv.exit, label %_ZL16as_socket_base_tPv.exit.thread

_ZL16as_socket_base_tPv.exit.thread:              ; preds = %4, %6
  %8 = tail call ptr @__errno_location() #20
  store i32 88, ptr %8, align 4, !tbaa !3
  br label %29

_ZL16as_socket_base_tPv.exit:                     ; preds = %6
  call void @llvm.lifetime.start.p0(i64 64, ptr nonnull %5) #22
  %9 = call noundef i32 @_ZN3zmq5msg_t9init_dataEPvmPFvS1_S1_ES1_(ptr noundef nonnull align 8 dereferenceable(64) %5, ptr noundef %1, i64 noundef %2, ptr noundef null, ptr noundef null)
  %.not15 = icmp eq i32 %9, 0
  br i1 %.not15, label %10, label %28

10:                                               ; preds = %_ZL16as_socket_base_tPv.exit
  %11 = call noundef i64 @_ZNK3zmq5msg_t4sizeEv(ptr noundef nonnull align 8 dereferenceable(64) %5)
  %12 = call noundef i32 @_ZN3zmq13socket_base_t4sendEPNS_5msg_tEi(ptr noundef nonnull align 8 dereferenceable(1825) %0, ptr noundef nonnull %5, i32 noundef %3)
  %13 = call i64 @llvm.umin.i64(i64 %11, i64 2147483647)
  %14 = trunc nuw nsw i64 %13 to i32
  %15 = icmp slt i32 %12, 0
  br i1 %15, label %16, label %28, !prof !10

16:                                               ; preds = %10
  %17 = tail call ptr @__errno_location() #20
  %18 = load i32, ptr %17, align 4, !tbaa !3
  %19 = call noundef i32 @_ZN3zmq5msg_t5closeEv(ptr noundef nonnull align 8 dereferenceable(64) %5)
  %.not16 = icmp eq i32 %19, 0
  br i1 %.not16, label %27, label %20, !prof !9

20:                                               ; preds = %16
  %21 = load i32, ptr %17, align 4, !tbaa !3
  %22 = call ptr @strerror(i32 noundef %21) #22
  %23 = load ptr, ptr @stderr, align 8, !tbaa !11
  %24 = call i32 (ptr, ptr, ...) @fprintf(ptr noundef %23, ptr noundef nonnull @.str, ptr noundef %22, ptr noundef nonnull @.str.1, i32 noundef 415) #24
  %25 = load ptr, ptr @stderr, align 8, !tbaa !11
  %26 = call i32 @fflush(ptr noundef %25)
  call void @_ZN3zmq9zmq_abortEPKc(ptr noundef %22)
  br label %27

27:                                               ; preds = %20, %16
  store i32 %18, ptr %17, align 4, !tbaa !3
  br label %28

28:                                               ; preds = %10, %_ZL16as_socket_base_tPv.exit, %27
  %.1 = phi i32 [ -1, %27 ], [ -1, %_ZL16as_socket_base_tPv.exit ], [ %14, %10 ]
  call void @llvm.lifetime.end.p0(i64 64, ptr nonnull %5) #22
  br label %29

29:                                               ; preds = %_ZL16as_socket_base_tPv.exit.thread, %28
  %.0 = phi i32 [ %.1, %28 ], [ -1, %_ZL16as_socket_base_tPv.exit.thread ]
  ret i32 %.0
}